; Function Attrs: nounwind uwtable
define internal noundef i32 @cvBandPrecFree(ptr noundef readonly captures(none) %0) #0 {
  %2 = getelementptr inbounds nuw i8, ptr %0, i64 2016
  %3 = load ptr, ptr %2, align 8, !tbaa !3
  %4 = icmp eq ptr %3, null
  br i1 %4, label %21, label %5

5:                                                ; preds = %1
  %6 = getelementptr inbounds nuw i8, ptr %3, i64 240
  %7 = load ptr, ptr %6, align 8, !tbaa !42
  %8 = icmp eq ptr %7, null
  br i1 %8, label %21, label %9

9:                                                ; preds = %5
  %10 = getelementptr inbounds nuw i8, ptr %7, i64 40
  %11 = load ptr, ptr %10, align 8, !tbaa !37
  %12 = tail call i32 @SUNLinSolFree(ptr noundef %11) #8
  %13 = getelementptr inbounds nuw i8, ptr %7, i64 32
  %14 = load ptr, ptr %13, align 8, !tbaa !36
  tail call void @SUNMatDestroy(ptr noundef %14) #8
  %15 = getelementptr inbounds nuw i8, ptr %7, i64 24
  %16 = load ptr, ptr %15, align 8, !tbaa !35
  tail call void @SUNMatDestroy(ptr noundef %16) #8
  %17 = getelementptr inbounds nuw i8, ptr %7, i64 48
  %18 = load ptr, ptr %17, align 8, !tbaa !38
  tail call void @N_VDestroy(ptr noundef %18) #8
  %19 = getelementptr inbounds nuw i8, ptr %7, i64 56
  %20 = load ptr, ptr %19, align 8, !tbaa !39
  tail call void @N_VDestroy(ptr noundef %20) #8
  tail call void @free(ptr noundef nonnull %7) #8
  br label %21

21:                                               ; preds = %5, %1, %9
  ret i32 0
}